target datalayout = "e-m:e-p270:32:32-p271:32:32-p272:64:64-i64:64-i128:128-f80:128-n8:16:32:64-S128"
target triple = "x86_64-pc-linux-gnu"

%"class.icu_77::MaybeStackArray" = type <{ ptr, i32, i8, [40 x i8], [3 x i8] }>
%"class.icu_77::CharString" = type { %"class.icu_77::MaybeStackArray", i32, [4 x i8] }
%"class.icu_77::MeasureUnitImpl" = type { i32, %"class.icu_77::MaybeStackVector", %"class.icu_77::CharString", i64 }
%"class.icu_77::MaybeStackVector" = type { %"class.icu_77::MemoryPool" }
%"class.icu_77::MemoryPool" = type { i32, %"class.icu_77::MaybeStackArray.0" }
%"class.icu_77::MaybeStackArray.0" = type { ptr, i32, i8, [8 x ptr] }
%"class.icu_77::UObject" = type { ptr }
%"class.icu_77::MeasureUnit" = type <{ %"class.icu_77::UObject", ptr, i16, i8, [5 x i8] }>

@_ZN6icu_7715MaybeStackArrayIcLi40EEC1Ev = weak_odr unnamed_addr alias void (ptr), ptr @_ZN6icu_7715MaybeStackArrayIcLi40EEC2Ev

; Function Attrs: mustprogress nounwind uwtable
define linkonce_odr void @_ZN6icu_7715MaybeStackArrayIPNS_14SingleUnitImplELi8EEC2Ev(ptr noundef nonnull align 8 dereferenceable(80) %0) unnamed_addr #0 comdat align 2 {
  %2 = alloca ptr, align 8
  store ptr %0, ptr %2, align 8, !tbaa !180
  %3 = load ptr, ptr %2, align 8
  %4 = getelementptr inbounds nuw %"class.icu_77::MaybeStackArray.0", ptr %3, i32 0, i32 0
  %5 = getelementptr inbounds nuw %"class.icu_77::MaybeStackArray.0", ptr %3, i32 0, i32 3
  %6 = getelementptr inbounds [8 x ptr], ptr %5, i64 0, i64 0
  store ptr %6, ptr %4, align 8, !tbaa !182
  %7 = getelementptr inbounds nuw %"class.icu_77::MaybeStackArray.0", ptr %3, i32 0, i32 1
  store i32 8, ptr %7, align 8, !tbaa !183
  %8 = getelementptr inbounds nuw %"class.icu_77::MaybeStackArray.0", ptr %3, i32 0, i32 2
  store i8 0, ptr %8, align 4, !tbaa !184
  ret void
}

; Function Attrs: mustprogress nounwind uwtable
define weak_odr noundef nonnull align 1 dereferenceable(1) ptr @_ZN6icu_7715MaybeStackArrayIcLi40EEixEl(ptr noundef nonnull align 8 dereferenceable(53) %0, i64 noundef %1) #0 comdat align 2 {
  %3 = alloca ptr, align 8
  %4 = alloca i64, align 8
  store ptr %0, ptr %3, align 8, !tbaa !3
  store i64 %1, ptr %4, align 8, !tbaa !18
  %5 = load ptr, ptr %3, align 8
  %6 = getelementptr inbounds nuw %"class.icu_77::MaybeStackArray", ptr %5, i32 0, i32 0
  %7 = load ptr, ptr %6, align 8, !tbaa !8
  %8 = load i64, ptr %4, align 8, !tbaa !18
  %9 = getelementptr inbounds i8, ptr %7, i64 %8
  ret ptr %9
}

; Function Attrs: mustprogress uwtable
define linkonce_odr void @_ZN6icu_7710MemoryPoolINS_14SingleUnitImplELi8EEC2Ev(ptr noundef nonnull align 8 dereferenceable(88) %0) unnamed_addr #1 comdat align 2 {
  %2 = alloca ptr, align 8
  store ptr %0, ptr %2, align 8, !tbaa !95
  %3 = load ptr, ptr %2, align 8
  %4 = getelementptr inbounds nuw %"class.icu_77::MemoryPool", ptr %3, i32 0, i32 0
  store i32 0, ptr %4, align 8, !tbaa !93
  %5 = getelementptr inbounds nuw %"class.icu_77::MemoryPool", ptr %3, i32 0, i32 1
  call void @_ZN6icu_7715MaybeStackArrayIPNS_14SingleUnitImplELi8EEC2Ev(ptr noundef nonnull align 8 dereferenceable(80) %5)
  ret void
}

; Function Attrs: mustprogress uwtable
define linkonce_odr void @_ZN6icu_7710CharStringC2Ev(ptr noundef nonnull align 8 dereferenceable(60) %0) unnamed_addr #1 comdat align 2 {
  %2 = alloca ptr, align 8
  store ptr %0, ptr %2, align 8, !tbaa !32
  %3 = load ptr, ptr %2, align 8
  %4 = getelementptr inbounds nuw %"class.icu_77::CharString", ptr %3, i32 0, i32 0
  call void @_ZN6icu_7715MaybeStackArrayIcLi40EEC1Ev(ptr noundef nonnull align 8 dereferenceable(53) %4)
  %5 = getelementptr inbounds nuw %"class.icu_77::CharString", ptr %3, i32 0, i32 1
  store i32 0, ptr %5, align 8, !tbaa !34
  %6 = getelementptr inbounds nuw %"class.icu_77::CharString", ptr %3, i32 0, i32 0
  %7 = call noundef nonnull align 1 dereferenceable(1) ptr @_ZN6icu_7715MaybeStackArrayIcLi40EEixEl(ptr noundef nonnull align 8 dereferenceable(53) %6, i64 noundef 0)
  store i8 0, ptr %7, align 1, !tbaa !36
  ret void
}

; Function Attrs: inlinehint mustprogress uwtable
define linkonce_odr void @_ZN6icu_7716MaybeStackVectorINS_14SingleUnitImplELi8EEC2Ev(ptr noundef nonnull align 8 dereferenceable(88) %0) unnamed_addr #3 comdat align 2 {
  %2 = alloca ptr, align 8
  store ptr %0, ptr %2, align 8, !tbaa !91
  %3 = load ptr, ptr %2, align 8
  call void @_ZN6icu_7710MemoryPoolINS_14SingleUnitImplELi8EEC2Ev(ptr noundef nonnull align 8 dereferenceable(88) %3)
  ret void
}

; Function Attrs: mustprogress uwtable
define void @_ZNO6icu_7715MeasureUnitImpl5buildER10UErrorCode(ptr dead_on_unwind noalias writable sret(%"class.icu_77::MeasureUnit") align 8 %0, ptr noundef nonnull align 8 dereferenceable(168) %1, ptr noundef nonnull align 4 dereferenceable(4) %2) #1 align 2 {
  %4 = alloca ptr, align 8
  %5 = alloca ptr, align 8
  %6 = alloca ptr, align 8
  store ptr %0, ptr %4, align 8
  store ptr %1, ptr %5, align 8, !tbaa !25
  store ptr %2, ptr %6, align 8, !tbaa !22
  %7 = load ptr, ptr %5, align 8
  %8 = load ptr, ptr %6, align 8, !tbaa !22
  call void @_ZN6icu_7715MeasureUnitImpl9serializeER10UErrorCode(ptr noundef nonnull align 8 dereferenceable(168) %7, ptr noundef nonnull align 4 dereferenceable(4) %8)
  call void @_ZN6icu_7711MeasureUnitC1EONS_15MeasureUnitImplE(ptr noundef nonnull align 8 dereferenceable(19) %0, ptr noundef nonnull align 8 dereferenceable(168) %7)
  ret void
}

; Function Attrs: mustprogress uwtable
define linkonce_odr void @_ZN6icu_7715MeasureUnitImplC2Ev(ptr noundef nonnull align 8 dereferenceable(168) %0) unnamed_addr #1 comdat align 2 personality ptr @__gxx_personality_v0 {
  %2 = alloca ptr, align 8
  %3 = alloca ptr, align 8
  %4 = alloca i32, align 4
  store ptr %0, ptr %2, align 8, !tbaa !25
  %5 = load ptr, ptr %2, align 8
  %6 = getelementptr inbounds nuw %"class.icu_77::MeasureUnitImpl", ptr %5, i32 0, i32 0
  store i32 0, ptr %6, align 8, !tbaa !67
  %7 = getelementptr inbounds nuw %"class.icu_77::MeasureUnitImpl", ptr %5, i32 0, i32 1
  call void @_ZN6icu_7716MaybeStackVectorINS_14SingleUnitImplELi8EEC2Ev(ptr noundef nonnull align 8 dereferenceable(88) %7)
  %8 = getelementptr inbounds nuw %"class.icu_77::MeasureUnitImpl", ptr %5, i32 0, i32 2
  invoke void @_ZN6icu_7710CharStringC2Ev(ptr noundef nonnull align 8 dereferenceable(60) %8)
          to label %9 unwind label %11

9:                                                ; preds = %1
  %10 = getelementptr inbounds nuw %"class.icu_77::MeasureUnitImpl", ptr %5, i32 0, i32 3
  store i64 0, ptr %10, align 8, !tbaa !60
  ret void

11:                                               ; preds = %1
  %12 = landingpad { ptr, i32 }
          cleanup
  %13 = extractvalue { ptr, i32 } %12, 0
  store ptr %13, ptr %3, align 8
  %14 = extractvalue { ptr, i32 } %12, 1
  store i32 %14, ptr %4, align 4
  call void @_ZN6icu_7710MemoryPoolINS_14SingleUnitImplELi8EED2Ev(ptr noundef nonnull align 8 dereferenceable(88) %7) #14
  br label %15

15:                                               ; preds = %11
  %16 = load ptr, ptr %3, align 8
  %17 = load i32, ptr %4, align 4
  %18 = insertvalue { ptr, i32 } poison, ptr %16, 0
  %19 = insertvalue { ptr, i32 } %18, i32 %17, 1
  resume { ptr, i32 } %19
}

; Function Attrs: mustprogress uwtable
define void @_ZNK6icu_7714SingleUnitImpl5buildER10UErrorCode(ptr dead_on_unwind noalias writable sret(%"class.icu_77::MeasureUnit") align 8 %0, ptr noundef nonnull align 4 dereferenceable(12) %1, ptr noundef nonnull align 4 dereferenceable(4) %2) #1 align 2 personality ptr @__gxx_personality_v0 {
  %4 = alloca ptr, align 8
  %5 = alloca ptr, align 8
  %6 = alloca ptr, align 8
  %7 = alloca %"class.icu_77::MeasureUnitImpl", align 8
  %8 = alloca ptr, align 8
  %9 = alloca i32, align 4
  store ptr %0, ptr %4, align 8
  store ptr %1, ptr %5, align 8, !tbaa !79
  store ptr %2, ptr %6, align 8, !tbaa !22
  %10 = load ptr, ptr %5, align 8
  call void @llvm.lifetime.start.p0(i64 168, ptr %7) #14
  call void @_ZN6icu_7715MeasureUnitImplC2Ev(ptr noundef nonnull align 8 dereferenceable(168) %7)
  %11 = load ptr, ptr %6, align 8, !tbaa !22
  %12 = invoke noundef zeroext i1 @_ZN6icu_7715MeasureUnitImpl16appendSingleUnitERKNS_14SingleUnitImplER10UErrorCode(ptr noundef nonnull align 8 dereferenceable(168) %7, ptr noundef nonnull align 4 dereferenceable(12) %10, ptr noundef nonnull align 4 dereferenceable(4) %11)
          to label %13 unwind label %16

13:                                               ; preds = %3
  %14 = load ptr, ptr %6, align 8, !tbaa !22
  invoke void @_ZNO6icu_7715MeasureUnitImpl5buildER10UErrorCode(ptr dead_on_unwind writable sret(%"class.icu_77::MeasureUnit") align 8 %0, ptr noundef nonnull align 8 dereferenceable(168) %7, ptr noundef nonnull align 4 dereferenceable(4) %14)
          to label %15 unwind label %16

15:                                               ; preds = %13
  call void @_ZN6icu_7715MeasureUnitImplD2Ev(ptr noundef nonnull align 8 dereferenceable(168) %7) #14
  call void @llvm.lifetime.end.p0(i64 168, ptr %7) #14
  ret void

16:                                               ; preds = %13, %3
  %17 = landingpad { ptr, i32 }
          cleanup
  %18 = extractvalue { ptr, i32 } %17, 0
  store ptr %18, ptr %8, align 8
  %19 = extractvalue { ptr, i32 } %17, 1
  store i32 %19, ptr %9, align 4
  call void @_ZN6icu_7715MeasureUnitImplD2Ev(ptr noundef nonnull align 8 dereferenceable(168) %7) #14
  call void @llvm.lifetime.end.p0(i64 168, ptr %7) #14
  br label %20

20:                                               ; preds = %16
  %21 = load ptr, ptr %8, align 8
  %22 = load i32, ptr %9, align 4
  %23 = insertvalue { ptr, i32 } poison, ptr %21, 0
  %24 = insertvalue { ptr, i32 } %23, i32 %22, 1
  resume { ptr, i32 } %24
}