; Function Attrs: mustprogress uwtable
define void @_ZNK6icu_7714SingleUnitImpl5buildER10UErrorCode(ptr dead_on_unwind noalias writable sret(%"class.icu_77::MeasureUnit") align 8 %0, ptr noundef nonnull align 4 dereferenceable(12) %1, ptr noundef nonnull align 4 dereferenceable(4) %2) local_unnamed_addr #1 align 2 personality ptr @__gxx_personality_v0 {
  %4 = alloca %"class.icu_77::MeasureUnitImpl", align 8
  call void @llvm.lifetime.start.p0(i64 168, ptr nonnull %4) #18
  store i32 0, ptr %4, align 8, !tbaa !76
  %5 = getelementptr inbounds nuw i8, ptr %4, i64 8
  store i32 0, ptr %5, align 8, !tbaa !28
  %6 = getelementptr inbounds nuw i8, ptr %4, i64 16
  %7 = getelementptr inbounds nuw i8, ptr %4, i64 32
  store ptr %7, ptr %6, align 8, !tbaa !33
  %8 = getelementptr inbounds nuw i8, ptr %4, i64 24
  store i32 8, ptr %8, align 8, !tbaa !83
  %9 = getelementptr inbounds nuw i8, ptr %4, i64 28
  store i8 0, ptr %9, align 4, !tbaa !45
  %10 = getelementptr inbounds nuw i8, ptr %4, i64 96
  invoke void @_ZN6icu_7715MaybeStackArrayIcLi40EEC1Ev(ptr noundef nonnull align 8 dereferenceable(60) %10)
          to label %_ZN6icu_7715MeasureUnitImplC2Ev.exit unwind label %11

common.resume:                                    ; preds = %36, %11
  %common.resume.op = phi { ptr, i32 } [ %12, %11 ], [ %37, %36 ]
  resume { ptr, i32 } %common.resume.op

11:                                               ; preds = %3
  %12 = landingpad { ptr, i32 }
          cleanup
  call void @_ZN6icu_7710MemoryPoolINS_14SingleUnitImplELi8EED2Ev(ptr noundef nonnull align 8 dereferenceable(88) %5) #18
  br label %common.resume

_ZN6icu_7715MeasureUnitImplC2Ev.exit:             ; preds = %3
  %13 = getelementptr inbounds nuw i8, ptr %4, i64 152
  store i32 0, ptr %13, align 8, !tbaa !15
  %14 = load ptr, ptr %10, align 8, !tbaa !3
  store i8 0, ptr %14, align 1, !tbaa !17
  %15 = getelementptr inbounds nuw i8, ptr %4, i64 160
  store i64 0, ptr %15, align 8, !tbaa !81
  %16 = invoke noundef zeroext i1 @_ZN6icu_7715MeasureUnitImpl16appendSingleUnitERKNS_14SingleUnitImplER10UErrorCode(ptr noundef nonnull align 8 dereferenceable(168) %4, ptr noundef nonnull align 4 dereferenceable(12) %1, ptr noundef nonnull align 4 dereferenceable(4) %2)
          to label %17 unwind label %36

17:                                               ; preds = %_ZN6icu_7715MeasureUnitImplC2Ev.exit
  invoke void @_ZN6icu_7715MeasureUnitImpl9serializeER10UErrorCode(ptr noundef nonnull align 8 dereferenceable(168) %4, ptr noundef nonnull align 4 dereferenceable(4) %2)
          to label %.noexc unwind label %36

.noexc:                                           ; preds = %17
  invoke void @_ZN6icu_7711MeasureUnitC1EONS_15MeasureUnitImplE(ptr noundef nonnull align 8 dereferenceable(19) %0, ptr noundef nonnull align 8 dereferenceable(168) %4)
          to label %_ZNO6icu_7715MeasureUnitImpl5buildER10UErrorCode.exit unwind label %36

_ZNO6icu_7715MeasureUnitImpl5buildER10UErrorCode.exit: ; preds = %.noexc
  call void @_ZN6icu_7715MaybeStackArrayIcLi40EED1Ev(ptr noundef nonnull align 8 dereferenceable(60) %10) #18
  %18 = load i32, ptr %5, align 8, !tbaa !28
  %19 = icmp sgt i32 %18, 0
  br i1 %19, label %.lr.ph.i.i, label %._crit_edge.i.i

._crit_edge.i.i:                                  ; preds = %32, %_ZNO6icu_7715MeasureUnitImpl5buildER10UErrorCode.exit
  %20 = load i8, ptr %9, align 4, !tbaa !45
  %.not.i.i.i.i = icmp eq i8 %20, 0
  br i1 %.not.i.i.i.i, label %_ZN6icu_7715MeasureUnitImplD2Ev.exit, label %21

21:                                               ; preds = %._crit_edge.i.i
  %22 = load ptr, ptr %6, align 8, !tbaa !33
  invoke void @uprv_free_77(ptr noundef %22)
          to label %_ZN6icu_7715MeasureUnitImplD2Ev.exit unwind label %23

23:                                               ; preds = %21
  %24 = landingpad { ptr, i32 }
          catch ptr null
  %25 = extractvalue { ptr, i32 } %24, 0
  call void @__clang_call_terminate(ptr %25) #20
  unreachable

.lr.ph.i.i:                                       ; preds = %_ZNO6icu_7715MeasureUnitImpl5buildER10UErrorCode.exit, %32
  %26 = phi i32 [ %33, %32 ], [ %18, %_ZNO6icu_7715MeasureUnitImpl5buildER10UErrorCode.exit ]
  %indvars.iv.i.i = phi i64 [ %indvars.iv.next.i.i, %32 ], [ 0, %_ZNO6icu_7715MeasureUnitImpl5buildER10UErrorCode.exit ]
  %27 = load ptr, ptr %6, align 8, !tbaa !33
  %28 = getelementptr inbounds nuw ptr, ptr %27, i64 %indvars.iv.i.i
  %29 = load ptr, ptr %28, align 8, !tbaa !34
  %30 = icmp eq ptr %29, null
  br i1 %30, label %32, label %31

31:                                               ; preds = %.lr.ph.i.i
  call void @_ZN6icu_777UMemorydlEPv(ptr noundef nonnull %29) #18
  %.pre.i.i = load i32, ptr %5, align 8, !tbaa !28
  br label %32

32:                                               ; preds = %31, %.lr.ph.i.i
  %33 = phi i32 [ %26, %.lr.ph.i.i ], [ %.pre.i.i, %31 ]
  %indvars.iv.next.i.i = add nuw nsw i64 %indvars.iv.i.i, 1
  %34 = sext i32 %33 to i64
  %35 = icmp slt i64 %indvars.iv.next.i.i, %34
  br i1 %35, label %.lr.ph.i.i, label %._crit_edge.i.i, !llvm.loop !46

_ZN6icu_7715MeasureUnitImplD2Ev.exit:             ; preds = %._crit_edge.i.i, %21
  call void @llvm.lifetime.end.p0(i64 168, ptr nonnull %4) #18
  ret void

36:                                               ; preds = %.noexc, %17, %_ZN6icu_7715MeasureUnitImplC2Ev.exit
  %37 = landingpad { ptr, i32 }
          cleanup
  call void @_ZN6icu_7715MeasureUnitImplD2Ev(ptr noundef nonnull align 8 dereferenceable(168) %4) #18
  call void @llvm.lifetime.end.p0(i64 168, ptr nonnull %4) #18
  br label %common.resume
}